; ModuleID = '20/902.c'
source_filename = "20/902.c"
target datalayout = "e-m:e-p270:32:32-p271:32:32-p272:64:64-i64:64-f80:128-n8:16:32:64-S128"
target triple = "x86_64-pc-linux-gnu"

@.str = private unnamed_addr constant [6 x i8] c"%s %s\00", align 1
@.str.1 = private unnamed_addr constant [3 x i8] c"%c\00", align 1
@.str.2 = private unnamed_addr constant [2 x i8] c"\0A\00", align 1

; Function Attrs: noinline nounwind uwtable
define dso_local i32 @main() #0 {
  %1 = alloca i32, align 4
  %2 = alloca [13 x i8], align 1
  %3 = alloca [4 x i8], align 1
  %4 = alloca i32, align 4
  %5 = alloca i32, align 4
  %6 = alloca i32, align 4
  %7 = alloca i32, align 4
  store i32 0, i32* %1, align 4
  br label %8

8:                                                ; preds = %93, %0
  %9 = getelementptr inbounds [13 x i8], [13 x i8]* %2, i64 0, i64 0
  %10 = getelementptr inbounds [4 x i8], [4 x i8]* %3, i64 0, i64 0
  %11 = call i32 (i8*, ...) @__isoc99_scanf(i8* getelementptr inbounds ([6 x i8], [6 x i8]* @.str, i64 0, i64 0), i8* %9, i8* %10)
  %12 = icmp ne i32 %11, -1
  br i1 %12, label %13, label %95

13:                                               ; preds = %8
  store i32 0, i32* %6, align 4
  %14 = getelementptr inbounds [13 x i8], [13 x i8]* %2, i64 0, i64 0
  %15 = call i64 @strlen(i8* %14) #3
  %16 = trunc i64 %15 to i32
  store i32 %16, i32* %5, align 4
  store i32 0, i32* %4, align 4
  br label %17

17:                                               ; preds = %37, %13
  %18 = load i32, i32* %4, align 4
  %19 = load i32, i32* %5, align 4
  %20 = icmp slt i32 %18, %19
  br i1 %20, label %21, label %40

21:                                               ; preds = %17
  %22 = load i32, i32* %6, align 4
  %23 = load i32, i32* %4, align 4
  %24 = sext i32 %23 to i64
  %25 = getelementptr inbounds [13 x i8], [13 x i8]* %2, i64 0, i64 %24
  %26 = load i8, i8* %25, align 1
  %27 = sext i8 %26 to i32
  %28 = icmp slt i32 %22, %27
  br i1 %28, label %29, label %36

29:                                               ; preds = %21
  %30 = load i32, i32* %4, align 4
  store i32 %30, i32* %7, align 4
  %31 = load i32, i32* %4, align 4
  %32 = sext i32 %31 to i64
  %33 = getelementptr inbounds [13 x i8], [13 x i8]* %2, i64 0, i64 %32
  %34 = load i8, i8* %33, align 1
  %35 = sext i8 %34 to i32
  store i32 %35, i32* %6, align 4
  br label %36

36:                                               ; preds = %29, %21
  br label %37

37:                                               ; preds = %36
  %38 = load i32, i32* %4, align 4
  %39 = add nsw i32 %38, 1
  store i32 %39, i32* %4, align 4
  br label %17

40:                                               ; preds = %17
  %41 = load i32, i32* %5, align 4
  %42 = sub nsw i32 %41, 1
  store i32 %42, i32* %4, align 4
  br label %43

43:                                               ; preds = %56, %40
  %44 = load i32, i32* %4, align 4
  %45 = load i32, i32* %7, align 4
  %46 = icmp sgt i32 %44, %45
  br i1 %46, label %47, label %59

47:                                               ; preds = %43
  %48 = load i32, i32* %4, align 4
  %49 = sext i32 %48 to i64
  %50 = getelementptr inbounds [13 x i8], [13 x i8]* %2, i64 0, i64 %49
  %51 = load i8, i8* %50, align 1
  %52 = load i32, i32* %4, align 4
  %53 = add nsw i32 %52, 3
  %54 = sext i32 %53 to i64
  %55 = getelementptr inbounds [13 x i8], [13 x i8]* %2, i64 0, i64 %54
  store i8 %51, i8* %55, align 1
  br label %56

56:                                               ; preds = %47
  %57 = load i32, i32* %4, align 4
  %58 = add nsw i32 %57, -1
  store i32 %58, i32* %4, align 4
  br label %43

59:                                               ; preds = %43
  %60 = getelementptr inbounds [4 x i8], [4 x i8]* %3, i64 0, i64 0
  %61 = load i8, i8* %60, align 1
  %62 = load i32, i32* %7, align 4
  %63 = add nsw i32 %62, 1
  %64 = sext i32 %63 to i64
  %65 = getelementptr inbounds [13 x i8], [13 x i8]* %2, i64 0, i64 %64
  store i8 %61, i8* %65, align 1
  %66 = getelementptr inbounds [4 x i8], [4 x i8]* %3, i64 0, i64 1
  %67 = load i8, i8* %66, align 1
  %68 = load i32, i32* %7, align 4
  %69 = add nsw i32 %68, 2
  %70 = sext i32 %69 to i64
  %71 = getelementptr inbounds [13 x i8], [13 x i8]* %2, i64 0, i64 %70
  store i8 %67, i8* %71, align 1
  %72 = getelementptr inbounds [4 x i8], [4 x i8]* %3, i64 0, i64 2
  %73 = load i8, i8* %72, align 1
  %74 = load i32, i32* %7, align 4
  %75 = add nsw i32 %74, 3
  %76 = sext i32 %75 to i64
  %77 = getelementptr inbounds [13 x i8], [13 x i8]* %2, i64 0, i64 %76
  store i8 %73, i8* %77, align 1
  store i32 0, i32* %4, align 4
  br label %78

78:                                               ; preds = %90, %59
  %79 = load i32, i32* %4, align 4
  %80 = load i32, i32* %5, align 4
  %81 = add nsw i32 %80, 3
  %82 = icmp slt i32 %79, %81
  br i1 %82, label %83, label %93

83:                                               ; preds = %78
  %84 = load i32, i32* %4, align 4
  %85 = sext i32 %84 to i64
  %86 = getelementptr inbounds [13 x i8], [13 x i8]* %2, i64 0, i64 %85
  %87 = load i8, i8* %86, align 1
  %88 = sext i8 %87 to i32
  %89 = call i32 (i8*, ...) @printf(i8* getelementptr inbounds ([3 x i8], [3 x i8]* @.str.1, i64 0, i64 0), i32 %88)
  br label %90

90:                                               ; preds = %83
  %91 = load i32, i32* %4, align 4
  %92 = add nsw i32 %91, 1
  store i32 %92, i32* %4, align 4
  br label %78

93:                                               ; preds = %78
  %94 = call i32 (i8*, ...) @printf(i8* getelementptr inbounds ([2 x i8], [2 x i8]* @.str.2, i64 0, i64 0))
  br label %8

95:                                               ; preds = %8
  ret i32 0
}

declare dso_local i32 @__isoc99_scanf(i8*, ...) #1

; Function Attrs: nounwind readonly
declare dso_local i64 @strlen(i8*) #2

declare dso_local i32 @printf(i8*, ...) #1


!llvm.module.flags = !{!0}
!llvm.ident = !{!1}

!0 = !{i32 1, !"wchar_size", i32 4}
!1 = !{!"clang version 10.0.0-4ubuntu1 "}
